target datalayout = "e-m:e-p270:32:32-p271:32:32-p272:64:64-i64:64-i128:128-f80:128-n8:16:32:64-S128"
target triple = "x86_64-pc-linux-gnu"

%struct.ClusterInfo = type { %struct.ControlData, ptr, %struct.DbInfoArr, ptr, ptr, ptr, ptr, ptr, i16, i32, [64 x i8], i32, ptr, i32 }
%struct.ControlData = type { i32, i32, [25 x i8], i32, i32, i32, i32, i32, i32, i32, i32, i32, i32, i32, i32, i32, i32, i32, i32, i8, i8, i32 }
%struct.DbInfoArr = type { ptr, i32 }

@pg_file_create_mode = external global i32, align 4
@new_cluster = external global %struct.ClusterInfo, align 8
@.str.11 = private unnamed_addr constant [14 x i8] c"%s/PG_VERSION\00", align 1
@old_cluster = external global %struct.ClusterInfo, align 8
@.str.13 = private unnamed_addr constant [29 x i8] c"could not open file \22%s\22: %m\00", align 1
@.str.14 = private unnamed_addr constant [31 x i8] c"could not create file \22%s\22: %m\00", align 1
@.str.16 = private unnamed_addr constant [35 x i8] c"%s/PG_VERSION.copy_file_range_test\00", align 1
@.str.17 = private unnamed_addr constant [67 x i8] c"could not copy file range between old and new data directories: %m\00", align 1

; Function Attrs: nounwind uwtable
define dso_local void @check_copy_file_range() #0 {
  %1 = alloca [1024 x i8], align 16
  %2 = alloca [1024 x i8], align 16
  %3 = alloca i32, align 4
  %4 = alloca i32, align 4
  call void @llvm.lifetime.start.p0(i64 1024, ptr %1) #7
  call void @llvm.lifetime.start.p0(i64 1024, ptr %2) #7
  %5 = getelementptr inbounds [1024 x i8], ptr %1, i64 0, i64 0
  %6 = load ptr, ptr getelementptr inbounds nuw (%struct.ClusterInfo, ptr @old_cluster, i32 0, i32 3), align 8
  %7 = call i32 (ptr, i64, ptr, ...) @pg_snprintf(ptr noundef %5, i64 noundef 1024, ptr noundef @.str.11, ptr noundef %6)
  %8 = getelementptr inbounds [1024 x i8], ptr %2, i64 0, i64 0
  %9 = load ptr, ptr getelementptr inbounds nuw (%struct.ClusterInfo, ptr @new_cluster, i32 0, i32 3), align 8
  %10 = call i32 (ptr, i64, ptr, ...) @pg_snprintf(ptr noundef %8, i64 noundef 1024, ptr noundef @.str.16, ptr noundef %9)
  %11 = getelementptr inbounds [1024 x i8], ptr %2, i64 0, i64 0
  %12 = call i32 @unlink(ptr noundef %11) #7
  call void @llvm.lifetime.start.p0(i64 4, ptr %3) #7
  call void @llvm.lifetime.start.p0(i64 4, ptr %4) #7
  %13 = getelementptr inbounds [1024 x i8], ptr %1, i64 0, i64 0
  %14 = call i32 (ptr, i32, ...) @open(ptr noundef %13, i32 noundef 0, i32 noundef 0)
  store i32 %14, ptr %3, align 4
  %15 = icmp slt i32 %14, 0
  br i1 %15, label %16, label %18

16:                                               ; preds = %0
  %17 = getelementptr inbounds [1024 x i8], ptr %1, i64 0, i64 0
  call void (ptr, ...) @pg_fatal(ptr noundef @.str.13, ptr noundef %17) #8
  unreachable

18:                                               ; preds = %0
  %19 = getelementptr inbounds [1024 x i8], ptr %2, i64 0, i64 0
  %20 = load i32, ptr @pg_file_create_mode, align 4
  %21 = call i32 (ptr, i32, ...) @open(ptr noundef %19, i32 noundef 194, i32 noundef %20)
  store i32 %21, ptr %4, align 4
  %22 = icmp slt i32 %21, 0
  br i1 %22, label %23, label %25

23:                                               ; preds = %18
  %24 = getelementptr inbounds [1024 x i8], ptr %2, i64 0, i64 0
  call void (ptr, ...) @pg_fatal(ptr noundef @.str.14, ptr noundef %24) #8
  unreachable

25:                                               ; preds = %18
  %26 = load i32, ptr %3, align 4
  %27 = load i32, ptr %4, align 4
  %28 = call i64 @copy_file_range(i32 noundef %26, ptr noundef null, i32 noundef %27, ptr noundef null, i64 noundef 9223372036854775807, i32 noundef 0)
  %29 = icmp slt i64 %28, 0
  br i1 %29, label %30, label %31

30:                                               ; preds = %25
  call void (ptr, ...) @pg_fatal(ptr noundef @.str.17) #8
  unreachable

31:                                               ; preds = %25
  %32 = load i32, ptr %3, align 4
  %33 = call i32 @close(i32 noundef %32)
  %34 = load i32, ptr %4, align 4
  %35 = call i32 @close(i32 noundef %34)
  call void @llvm.lifetime.end.p0(i64 4, ptr %4) #7
  call void @llvm.lifetime.end.p0(i64 4, ptr %3) #7
  %36 = getelementptr inbounds [1024 x i8], ptr %2, i64 0, i64 0
  %37 = call i32 @unlink(ptr noundef %36) #7
  call void @llvm.lifetime.end.p0(i64 1024, ptr %2) #7
  call void @llvm.lifetime.end.p0(i64 1024, ptr %1) #7
  ret void
}